; Function Attrs: mustprogress nofree norecurse nosync nounwind willreturn memory(argmem: read) uwtable
define zeroext i8 @png_get_current_pass_number(ptr noalias noundef readonly %0) local_unnamed_addr #6 {
  %.not = icmp eq ptr %0, null
  br i1 %.not, label %5, label %2

2:                                                ; preds = %1
  %3 = getelementptr inbounds i8, ptr %0, i64 613
  %4 = load i8, ptr %3, align 1
  br label %5

5:                                                ; preds = %1, %2
  %.0 = phi i8 [ %4, %2 ], [ 8, %1 ]
  ret i8 %.0
}